target datalayout = "e-m:e-p270:32:32-p271:32:32-p272:64:64-i64:64-i128:128-f80:128-n8:16:32:64-S128"
target triple = "x86_64-pc-linux-gnu"

%struct.ByteStreamBE = type { ptr, i32, i32 }

; Function Attrs: mustprogress nounwind uwtable
define noundef zeroext i1 @_ZN12ByteStreamBE14skip_to_markerEv(ptr noundef nonnull align 8 dereferenceable(16) %0) #0 align 2 {
  %2 = alloca i1, align 1
  %3 = alloca ptr, align 8
  store ptr %0, ptr %3, align 8, !tbaa !6
  %4 = load ptr, ptr %3, align 8
  %5 = getelementptr inbounds nuw %struct.ByteStreamBE, ptr %4, i32 0, i32 2
  %6 = load i32, ptr %5, align 4, !tbaa !11
  %7 = add i32 %6, 2
  %8 = getelementptr inbounds nuw %struct.ByteStreamBE, ptr %4, i32 0, i32 1
  %9 = load i32, ptr %8, align 8, !tbaa !15
  %10 = icmp ugt i32 %7, %9
  br i1 %10, label %11, label %12

11:                                               ; preds = %1
  store i1 false, ptr %2, align 1
  br label %64

12:                                               ; preds = %1
  br label %13

13:                                               ; preds = %59, %12
  %14 = getelementptr inbounds nuw %struct.ByteStreamBE, ptr %4, i32 0, i32 0
  %15 = load ptr, ptr %14, align 8, !tbaa !16
  %16 = getelementptr inbounds nuw %struct.ByteStreamBE, ptr %4, i32 0, i32 2
  %17 = load i32, ptr %16, align 4, !tbaa !11
  %18 = zext i32 %17 to i64
  %19 = getelementptr inbounds nuw i8, ptr %15, i64 %18
  %20 = load i8, ptr %19, align 1, !tbaa !17
  %21 = zext i8 %20 to i32
  %22 = icmp eq i32 %21, 255
  br i1 %22, label %23, label %45

23:                                               ; preds = %13
  %24 = getelementptr inbounds nuw %struct.ByteStreamBE, ptr %4, i32 0, i32 0
  %25 = load ptr, ptr %24, align 8, !tbaa !16
  %26 = getelementptr inbounds nuw %struct.ByteStreamBE, ptr %4, i32 0, i32 2
  %27 = load i32, ptr %26, align 4, !tbaa !11
  %28 = add i32 %27, 1
  %29 = zext i32 %28 to i64
  %30 = getelementptr inbounds nuw i8, ptr %25, i64 %29
  %31 = load i8, ptr %30, align 1, !tbaa !17
  %32 = zext i8 %31 to i32
  %33 = icmp ne i32 %32, 0
  br i1 %33, label %34, label %45

34:                                               ; preds = %23
  %35 = getelementptr inbounds nuw %struct.ByteStreamBE, ptr %4, i32 0, i32 0
  %36 = load ptr, ptr %35, align 8, !tbaa !16
  %37 = getelementptr inbounds nuw %struct.ByteStreamBE, ptr %4, i32 0, i32 2
  %38 = load i32, ptr %37, align 4, !tbaa !11
  %39 = add i32 %38, 1
  %40 = zext i32 %39 to i64
  %41 = getelementptr inbounds nuw i8, ptr %36, i64 %40
  %42 = load i8, ptr %41, align 1, !tbaa !17
  %43 = zext i8 %42 to i32
  %44 = icmp ne i32 %43, 255
  br label %45

45:                                               ; preds = %34, %23, %13
  %46 = phi i1 [ false, %23 ], [ false, %13 ], [ %44, %34 ]
  %47 = xor i1 %46, true
  br i1 %47, label %48, label %60

48:                                               ; preds = %45
  %49 = getelementptr inbounds nuw %struct.ByteStreamBE, ptr %4, i32 0, i32 2
  %50 = load i32, ptr %49, align 4, !tbaa !11
  %51 = add i32 %50, 1
  store i32 %51, ptr %49, align 4, !tbaa !11
  %52 = getelementptr inbounds nuw %struct.ByteStreamBE, ptr %4, i32 0, i32 2
  %53 = load i32, ptr %52, align 4, !tbaa !11
  %54 = add i32 %53, 2
  %55 = getelementptr inbounds nuw %struct.ByteStreamBE, ptr %4, i32 0, i32 1
  %56 = load i32, ptr %55, align 8, !tbaa !15
  %57 = icmp ugt i32 %54, %56
  br i1 %57, label %58, label %59

58:                                               ; preds = %48
  store i1 false, ptr %2, align 1
  br label %64

59:                                               ; preds = %48
  br label %13, !llvm.loop !18

60:                                               ; preds = %45
  %61 = getelementptr inbounds nuw %struct.ByteStreamBE, ptr %4, i32 0, i32 2
  %62 = load i32, ptr %61, align 4, !tbaa !11
  %63 = add i32 %62, 1
  store i32 %63, ptr %61, align 4, !tbaa !11
  store i1 true, ptr %2, align 1
  br label %64

64:                                               ; preds = %60, %58, %11
  %65 = load i1, ptr %2, align 1
  ret i1 %65
}