; Function Attrs: mustprogress nofree norecurse nosync nounwind memory(read, argmem: readwrite, inaccessiblemem: none) uwtable
define noundef zeroext i1 @_ZN12ByteStreamBE14skip_to_markerEv(ptr noundef nonnull align 8 captures(none) dereferenceable(16) %0) local_unnamed_addr #0 align 2 {
  %2 = getelementptr inbounds nuw i8, ptr %0, i64 12
  %3 = load i32, ptr %2, align 4, !tbaa !6
  %4 = add i32 %3, 2
  %5 = getelementptr inbounds nuw i8, ptr %0, i64 8
  %6 = load i32, ptr %5, align 8, !tbaa !13
  %7 = icmp ugt i32 %4, %6
  br i1 %7, label %.loopexit, label %.preheader

.preheader:                                       ; preds = %1
  %8 = load ptr, ptr %0, align 8, !tbaa !14
  br label %9

9:                                                ; preds = %.preheader, %.critedge
  %10 = phi i32 [ %3, %.preheader ], [ %15, %.critedge ]
  %11 = zext i32 %10 to i64
  %12 = getelementptr inbounds nuw i8, ptr %8, i64 %11
  %13 = load i8, ptr %12, align 1, !tbaa !15
  %14 = icmp eq i8 %13, -1
  %15 = add i32 %10, 1
  br i1 %14, label %16, label %.critedge

16:                                               ; preds = %9
  %17 = zext i32 %15 to i64
  %18 = getelementptr inbounds nuw i8, ptr %8, i64 %17
  %19 = load i8, ptr %18, align 1, !tbaa !15
  switch i8 %19, label %22 [
    i8 -1, label %.critedge
    i8 0, label %.critedge
  ]

.critedge:                                        ; preds = %9, %16, %16
  store i32 %15, ptr %2, align 4, !tbaa !6
  %20 = add i32 %10, 3
  %21 = icmp ugt i32 %20, %6
  br i1 %21, label %.loopexit, label %9, !llvm.loop !16

22:                                               ; preds = %16
  store i32 %15, ptr %2, align 4, !tbaa !6
  br label %.loopexit

.loopexit:                                        ; preds = %.critedge, %1, %22
  %.0 = phi i1 [ true, %22 ], [ false, %1 ], [ false, %.critedge ]
  ret i1 %.0
}